(dp0
S'METTS MARK'
p1
(dp2
S'to_messages'
p3
F807.0
sS'deferral_payments'
p4
F0.0
sS'expenses'
p5
F94299.0
sS'poi'
p6
I00
sS'long_term_incentive'
p7
F0.0
sS'shared_receipt_with_poi'
p8
F702.0
sS'from_poi_to_this_person'
p9
F38.0
sS'deferred_income'
p10
F0.0
sS'restricted_stock_deferred'
p11
F0.0
sS'bonus-to-salary_ratio'
p12
F1.6402943781644013
sS'loan_advances'
p13
F0.0
sS'from_messages'
p14
F29.0
sS'other'
p15
F1740.0
sS'director_fees'
p16
F0.0
sS'fraction_mail_from_poi'
p17
F1.3103448275862069
sS'bonus'
p18
F600000.0
sS'total_stock_value'
p19
F585062.0
sS'from_this_person_to_poi'
p20
F1.0
sS'restricted_stock'
p21
F585062.0
sS'salary'
p22
F365788.0
sS'total_payments'
p23
F1061827.0
sS'fraction_mail_to_poi'
p24
F0.0012391573729863693
sS'exercised_stock_options'
p25
F0.0
ssS'BAXTER JOHN C'
p26
(dp27
g3
F0.0
sg4
F1295738.0
sg5
F11200.0
sg6
I00
sg7
F1586055.0
sg8
F0.0
sg9
F0.0
sg10
F-1386055.0
sg11
F0.0
sg12
F4.492665723206865
sg13
F0.0
sg14
F0.0
sg15
F2660303.0
sg16
F0.0
sg17
F0.0
sg18
F1200000.0
sg19
F10623258.0
sg20
F0.0
sg21
F3942714.0
sg22
F267102.0
sg23
F5634343.0
sg24
F0.0
sg25
F6680544.0
ssS'ELLIOTT STEVEN'
p28
(dp29
g3
F0.0
sg4
F0.0
sg5
F78552.0
sg6
I00
sg7
F0.0
sg8
F0.0
sg9
F0.0
sg10
F-400729.0
sg11
F0.0
sg12
F2.047490069673162
sg13
F0.0
sg14
F0.0
sg15
F12961.0
sg16
F0.0
sg17
F0.0
sg18
F350000.0
sg19
F6678735.0
sg20
F0.0
sg21
F1788391.0
sg22
F170941.0
sg23
F211725.0
sg24
F0.0
sg25
F4890344.0
ssS'CORDES WILLIAM R'
p30
(dp31
g3
F764.0
sg4
F0.0
sg5
F0.0
sg6
I00
sg7
F0.0
sg8
F58.0
sg9
F10.0
sg10
F0.0
sg11
F0.0
sg12
F0.0
sg13
F0.0
sg14
F12.0
sg15
F0.0
sg16
F0.0
sg17
F0.8333333333333334
sg18
F0.0
sg19
F1038185.0
sg20
F0.0
sg21
F386335.0
sg22
F0.0
sg23
F0.0
sg24
F0.0
sg25
F651850.0
ssS'HANNON KEVIN P'
p32
(dp33
g3
F1045.0
sg4
F0.0
sg5
F34039.0
sg6
I01
sg7
F1617011.0
sg8
F1035.0
sg9
F32.0
sg10
F-3117011.0
sg11
F0.0
sg12
F6.165405498719651
sg13
F0.0
sg14
F32.0
sg15
F11350.0
sg16
F0.0
sg17
F1.0
sg18
F1500000.0
sg19
F6391065.0
sg20
F21.0
sg21
F853064.0
sg22
F243293.0
sg23
F288682.0
sg24
F0.020095693779904306
sg25
F5538001.0
ssS'MORDAUNT KRISTINA M'
p34
(dp35
g3
F0.0
sg4
F0.0
sg5
F35018.0
sg6
I00
sg7
F0.0
sg8
F0.0
sg9
F0.0
sg10
F0.0
sg11
F0.0
sg12
F1.2168046335920448
sg13
F0.0
sg14
F0.0
sg15
F1411.0
sg16
F0.0
sg17
F0.0
sg18
F325000.0
sg19
F208510.0
sg20
F0.0
sg21
F208510.0
sg22
F267093.0
sg23
F628522.0
sg24
F0.0
sg25
F0.0
ssS'MEYER ROCKFORD G'
p36
(dp37
g3
F232.0
sg4
F1848227.0
sg5
F0.0
sg6
I00
sg7
F0.0
sg8
F22.0
sg9
F0.0
sg10
F0.0
sg11
F0.0
sg12
F0.0
sg13
F0.0
sg14
F28.0
sg15
F0.0
sg16
F0.0
sg17
F0.0
sg18
F0.0
sg19
F955873.0
sg20
F0.0
sg21
F462384.0
sg22
F0.0
sg23
F1848227.0
sg24
F0.0
sg25
F493489.0
ssS'MCMAHON JEFFREY'
p38
(dp39
g3
F2355.0
sg4
F0.0
sg5
F137108.0
sg6
I00
sg7
F694862.0
sg8
F2228.0
sg9
F58.0
sg10
F0.0
sg11
F0.0
sg12
F7.018528916339135
sg13
F0.0
sg14
F48.0
sg15
F297353.0
sg16
F0.0
sg17
F1.2083333333333333
sg18
F2600000.0
sg19
F1662855.0
sg20
F26.0
sg21
F558801.0
sg22
F370448.0
sg23
F4099771.0
sg24
F0.011040339702760084
sg25
F1104054.0
ssS'HAEDICKE MARK E'
p40
(dp41
g3
F4009.0
sg4
F2157527.0
sg5
F76169.0
sg6
I00
sg7
F983346.0
sg8
F1847.0
sg9
F180.0
sg10
F-934484.0
sg11
F-329825.0
sg12
F3.073838957567658
sg13
F0.0
sg14
F1941.0
sg15
F52382.0
sg16
F0.0
sg17
F0.09273570324574962
sg18
F1150000.0
sg19
F803094.0
sg20
F61.0
sg21
F524169.0
sg22
F374125.0
sg23
F3859065.0
sg24
F0.015215764529807932
sg25
F608750.0
ssS'PIPER GREGORY F'
p42
(dp43
g3
F1238.0
sg4
F1130036.0
sg5
F43057.0
sg6
I00
sg7
F0.0
sg8
F742.0
sg9
F61.0
sg10
F-33333.0
sg11
F-409554.0
sg12
F2.0295193590777862
sg13
F0.0
sg14
F222.0
sg15
F778.0
sg16
F0.0
sg17
F0.2747747747747748
sg18
F400000.0
sg19
F880290.0
sg20
F48.0
sg21
F409554.0
sg22
F197091.0
sg23
F1737629.0
sg24
F0.03877221324717286
sg25
F880290.0
ssS'HUMPHREY GENE E'
p44
(dp45
g3
F128.0
sg4
F2964506.0
sg5
F4994.0
sg6
I00
sg7
F0.0
sg8
F119.0
sg9
F10.0
sg10
F0.0
sg11
F0.0
sg12
F0.0
sg13
F0.0
sg14
F17.0
sg15
F0.0
sg16
F0.0
sg17
F0.5882352941176471
sg18
F0.0
sg19
F2282768.0
sg20
F17.0
sg21
F0.0
sg22
F130724.0
sg23
F3100224.0
sg24
F0.1328125
sg25
F2282768.0
ssS'NOLES JAMES L'
p46
(dp47
g3
F0.0
sg4
F774401.0
sg5
F0.0
sg6
I00
sg7
F0.0
sg8
F0.0
sg9
F0.0
sg10
F0.0
sg11
F-94556.0
sg12
F0.0
sg13
F0.0
sg14
F0.0
sg15
F0.0
sg16
F0.0
sg17
F0.0
sg18
F0.0
sg19
F368705.0
sg20
F0.0
sg21
F463261.0
sg22
F0.0
sg23
F774401.0
sg24
F0.0
sg25
F0.0
ssS'BLACHMAN JEREMY M'
p48
(dp49
g3
F2475.0
sg4
F0.0
sg5
F84208.0
sg6
I00
sg7
F831809.0
sg8
F2326.0
sg9
F25.0
sg10
F0.0
sg11
F0.0
sg12
F3.419890080709406
sg13
F0.0
sg14
F14.0
sg15
F272.0
sg16
F0.0
sg17
F1.7857142857142858
sg18
F850000.0
sg19
F954354.0
sg20
F2.0
sg21
F189041.0
sg22
F248546.0
sg23
F2014835.0
sg24
F0.0008080808080808081
sg25
F765313.0
ssS'SUNDE MARTIN'
p50
(dp51
g3
F2647.0
sg4
F0.0
sg5
F0.0
sg6
I00
sg7
F476451.0
sg8
F2565.0
sg9
F37.0
sg10
F0.0
sg11
F0.0
sg12
F2.7185944090164127
sg13
F0.0
sg14
F38.0
sg15
F111122.0
sg16
F0.0
sg17
F0.9736842105263158
sg18
F700000.0
sg19
F698920.0
sg20
F13.0
sg21
F698920.0
sg22
F257486.0
sg23
F1545059.0
sg24
F0.004911220249338874
sg25
F0.0
ssS'GIBBS DANA R'
p52
(dp53
g3
F169.0
sg4
F504610.0
sg5
F0.0
sg6
I00
sg7
F461912.0
sg8
F23.0
sg9
F0.0
sg10
F0.0
sg11
F0.0
sg12
F0.0
sg13
F0.0
sg14
F12.0
sg15
F0.0
sg16
F0.0
sg17
F0.0
sg18
F0.0
sg19
F2218275.0
sg20
F0.0
sg21
F0.0
sg22
F0.0
sg23
F966522.0
sg24
F0.0
sg25
F2218275.0
ssS'LOWRY CHARLES P'
p54
(dp55
g3
F0.0
sg4
F0.0
sg5
F0.0
sg6
I00
sg7
F0.0
sg8
F0.0
sg9
F0.0
sg10
F0.0
sg11
F-153686.0
sg12
F0.0
sg13
F0.0
sg14
F0.0
sg15
F0.0
sg16
F0.0
sg17
F0.0
sg18
F0.0
sg19
F372205.0
sg20
F0.0
sg21
F153686.0
sg22
F0.0
sg23
F0.0
sg24
F0.0
sg25
F372205.0
ssS'COLWELL WESLEY'
p56
(dp57
g3
F1758.0
sg4
F27610.0
sg5
F16514.0
sg6
I01
sg7
F0.0
sg8
F1132.0
sg9
F240.0
sg10
F-144062.0
sg11
F0.0
sg12
F4.158839960906905
sg13
F0.0
sg14
F40.0
sg15
F101740.0
sg16
F0.0
sg17
F6.0
sg18
F1200000.0
sg19
F698242.0
sg20
F11.0
sg21
F698242.0
sg22
F288542.0
sg23
F1490344.0
sg24
F0.006257110352673493
sg25
F0.0
ssS'MULLER MARK S'
p58
(dp59
g3
F136.0
sg4
F842924.0
sg5
F0.0
sg6
I00
sg7
F1725545.0
sg8
F114.0
sg9
F12.0
sg10
F-719000.0
sg11
F0.0
sg12
F4.3710809285765375
sg13
F0.0
sg14
F16.0
sg15
F947.0
sg16
F0.0
sg17
F0.75
sg18
F1100000.0
sg19
F1416848.0
sg20
F0.0
sg21
F360528.0
sg22
F251654.0
sg23
F3202070.0
sg24
F0.0
sg25
F1056320.0
ssS'JACKSON CHARLENE R'
p60
(dp61
g3
F258.0
sg4
F0.0
sg5
F10181.0
sg6
I00
sg7
F0.0
sg8
F117.0
sg9
F25.0
sg10
F0.0
sg11
F0.0
sg12
F0.8663769502145149
sg13
F0.0
sg14
F56.0
sg15
F2435.0
sg16
F0.0
sg17
F0.44642857142857145
sg18
F250000.0
sg19
F725735.0
sg20
F19.0
sg21
F540672.0
sg22
F288558.0
sg23
F551174.0
sg24
F0.07364341085271318
sg25
F185063.0
ssS'WESTFAHL RICHARD K'
p62
(dp63
g3
F0.0
sg4
F0.0
sg5
F51870.0
sg6
I00
sg7
F256191.0
sg8
F0.0
sg9
F0.0
sg10
F-10800.0
sg11
F0.0
sg12
F0.0
sg13
F0.0
sg14
F0.0
sg15
F401130.0
sg16
F0.0
sg17
F0.0
sg18
F0.0
sg19
F384930.0
sg20
F0.0
sg21
F384930.0
sg22
F63744.0
sg23
F762135.0
sg24
F0.0
sg25
F0.0
ssS'WALTERS GARETH W'
p64
(dp65
g3
F0.0
sg4
F53625.0
sg5
F33785.0
sg6
I00
sg7
F0.0
sg8
F0.0
sg9
F0.0
sg10
F0.0
sg11
F0.0
sg12
F0.0
sg13
F0.0
sg14
F0.0
sg15
F0.0
sg16
F0.0
sg17
F0.0
sg18
F0.0
sg19
F1030329.0
sg20
F0.0
sg21
F0.0
sg22
F0.0
sg23
F87410.0
sg24
F0.0
sg25
F1030329.0
ssS'WALLS JR ROBERT H'
p66
(dp67
g3
F671.0
sg4
F0.0
sg5
F50936.0
sg6
I00
sg7
F540751.0
sg8
F215.0
sg9
F17.0
sg10
F0.0
sg11
F0.0
sg12
F2.380345626184922
sg13
F0.0
sg14
F146.0
sg15
F2.0
sg16
F0.0
sg17
F0.11643835616438356
sg18
F850000.0
sg19
F5898997.0
sg20
F0.0
sg21
F1552453.0
sg22
F357091.0
sg23
F1798780.0
sg24
F0.0
sg25
F4346544.0
ssS'KITCHEN LOUISE'
p68
(dp69
g3
F8305.0
sg4
F0.0
sg5
F5774.0
sg6
I00
sg7
F0.0
sg8
F3669.0
sg9
F251.0
sg10
F0.0
sg11
F0.0
sg12
F11.420487617981005
sg13
F0.0
sg14
F1728.0
sg15
F93925.0
sg16
F0.0
sg17
F0.14525462962962962
sg18
F3100000.0
sg19
F547143.0
sg20
F194.0
sg21
F466101.0
sg22
F271442.0
sg23
F3471141.0
sg24
F0.023359422034918725
sg25
F81042.0
ssS'CHAN RONNIE'
p70
(dp71
g3
F0.0
sg4
F0.0
sg5
F0.0
sg6
I00
sg7
F0.0
sg8
F0.0
sg9
F0.0
sg10
F-98784.0
sg11
F-32460.0
sg12
F0.0
sg13
F0.0
sg14
F0.0
sg15
F0.0
sg16
F98784.0
sg17
F0.0
sg18
F0.0
sg19
F0.0
sg20
F0.0
sg21
F32460.0
sg22
F0.0
sg23
F0.0
sg24
F0.0
sg25
F0.0
ssS'BELFER ROBERT'
p72
(dp73
g3
F0.0
sg4
F-102500.0
sg5
F0.0
sg6
I00
sg7
F0.0
sg8
F0.0
sg9
F0.0
sg10
F0.0
sg11
F44093.0
sg12
F0.0
sg13
F0.0
sg14
F0.0
sg15
F0.0
sg16
F3285.0
sg17
F0.0
sg18
F0.0
sg19
F-44093.0
sg20
F0.0
sg21
F0.0
sg22
F0.0
sg23
F102500.0
sg24
F0.0
sg25
F3285.0
ssS'SHANKMAN JEFFREY A'
p74
(dp75
g3
F3221.0
sg4
F0.0
sg5
F178979.0
sg6
I00
sg7
F554422.0
sg8
F1730.0
sg9
F94.0
sg10
F0.0
sg11
F0.0
sg12
F6.576567689322943
sg13
F0.0
sg14
F2681.0
sg15
F1191.0
sg16
F0.0
sg17
F0.0350615441999254
sg18
F2000000.0
sg19
F2072035.0
sg20
F83.0
sg21
F630137.0
sg22
F304110.0
sg23
F3038702.0
sg24
F0.025768394908413535
sg25
F1441898.0
ssS'WODRASKA JOHN'
p76
(dp77
g3
F0.0
sg4
F0.0
sg5
F0.0
sg6
I00
sg7
F0.0
sg8
F0.0
sg9
F0.0
sg10
F0.0
sg11
F0.0
sg12
F0.0
sg13
F0.0
sg14
F0.0
sg15
F189583.0
sg16
F0.0
sg17
F0.0
sg18
F0.0
sg19
F0.0
sg20
F0.0
sg21
F0.0
sg22
F0.0
sg23
F189583.0
sg24
F0.0
sg25
F0.0
ssS'BERGSIEKER RICHARD P'
p78
(dp79
g3
F383.0
sg4
F0.0
sg5
F59175.0
sg6
I00
sg7
F180250.0
sg8
F233.0
sg9
F4.0
sg10
F-485813.0
sg11
F0.0
sg12
F1.3303391832781686
sg13
F0.0
sg14
F59.0
sg15
F427316.0
sg16
F0.0
sg17
F0.06779661016949153
sg18
F250000.0
sg19
F659249.0
sg20
F0.0
sg21
F659249.0
sg22
F187922.0
sg23
F618850.0
sg24
F0.0
sg25
F0.0
ssS'URQUHART JOHN A'
p80
(dp81
g3
F0.0
sg4
F0.0
sg5
F228656.0
sg6
I00
sg7
F0.0
sg8
F0.0
sg9
F0.0
sg10
F-36666.0
sg11
F0.0
sg12
F0.0
sg13
F0.0
sg14
F0.0
sg15
F0.0
sg16
F36666.0
sg17
F0.0
sg18
F0.0
sg19
F0.0
sg20
F0.0
sg21
F0.0
sg22
F0.0
sg23
F228656.0
sg24
F0.0
sg25
F0.0
ssS'BIBI PHILIPPE A'
p82
(dp83
g3
F1607.0
sg4
F0.0
sg5
F38559.0
sg6
I00
sg7
F369721.0
sg8
F1336.0
sg9
F23.0
sg10
F0.0
sg11
F0.0
sg12
F4.681100058513751
sg13
F0.0
sg14
F40.0
sg15
F425688.0
sg16
F0.0
sg17
F0.575
sg18
F1000000.0
sg19
F1843816.0
sg20
F8.0
sg21
F378082.0
sg22
F213625.0
sg23
F2047593.0
sg24
F0.004978220286247666
sg25
F1465734.0
ssS'RIEKER PAULA H'
p84
(dp85
g3
F1328.0
sg4
F214678.0
sg5
F33271.0
sg6
I01
sg7
F0.0
sg8
F1258.0
sg9
F35.0
sg10
F-100000.0
sg11
F0.0
sg12
F2.8089774920646384
sg13
F0.0
sg14
F82.0
sg15
F1950.0
sg16
F0.0
sg17
F0.4268292682926829
sg18
F700000.0
sg19
F1918887.0
sg20
F48.0
sg21
F283649.0
sg22
F249201.0
sg23
F1099100.0
sg24
F0.03614457831325301
sg25
F1635238.0
ssS'WHALEY DAVID A'
p86
(dp87
g3
F0.0
sg4
F0.0
sg5
F0.0
sg6
I00
sg7
F0.0
sg8
F0.0
sg9
F0.0
sg10
F0.0
sg11
F0.0
sg12
F0.0
sg13
F0.0
sg14
F0.0
sg15
F0.0
sg16
F0.0
sg17
F0.0
sg18
F0.0
sg19
F98718.0
sg20
F0.0
sg21
F0.0
sg22
F0.0
sg23
F0.0
sg24
F0.0
sg25
F98718.0
ssS'BECK SALLY W'
p88
(dp89
g3
F7315.0
sg4
F0.0
sg5
F37172.0
sg6
I00
sg7
F0.0
sg8
F2639.0
sg9
F144.0
sg10
F0.0
sg11
F0.0
sg12
F3.025980201443825
sg13
F0.0
sg14
F4343.0
sg15
F566.0
sg16
F0.0
sg17
F0.033156804052498275
sg18
F700000.0
sg19
F126027.0
sg20
F386.0
sg21
F126027.0
sg22
F231330.0
sg23
F969068.0
sg24
F0.052768284347231714
sg25
F0.0
ssS'HAUG DAVID L'
p90
(dp91
g3
F573.0
sg4
F0.0
sg5
F475.0
sg6
I00
sg7
F0.0
sg8
F471.0
sg9
F4.0
sg10
F0.0
sg11
F0.0
sg12
F0.0
sg13
F0.0
sg14
F19.0
sg15
F0.0
sg16
F0.0
sg17
F0.21052631578947367
sg18
F0.0
sg19
F2217299.0
sg20
F7.0
sg21
F2217299.0
sg22
F0.0
sg23
F475.0
sg24
F0.012216404886561954
sg25
F0.0
ssS'ECHOLS JOHN B'
p92
(dp93
g3
F0.0
sg4
F0.0
sg5
F21530.0
sg6
I00
sg7
F2234774.0
sg8
F0.0
sg9
F0.0
sg10
F0.0
sg11
F0.0
sg12
F1.0974237976350518
sg13
F0.0
sg14
F0.0
sg15
F53775.0
sg16
F0.0
sg17
F0.0
sg18
F200000.0
sg19
F1008941.0
sg20
F0.0
sg21
F407503.0
sg22
F182245.0
sg23
F2692324.0
sg24
F0.0
sg25
F601438.0
ssS'MENDELSOHN JOHN'
p94
(dp95
g3
F0.0
sg4
F0.0
sg5
F148.0
sg6
I00
sg7
F0.0
sg8
F0.0
sg9
F0.0
sg10
F-103750.0
sg11
F0.0
sg12
F0.0
sg13
F0.0
sg14
F0.0
sg15
F0.0
sg16
F103750.0
sg17
F0.0
sg18
F0.0
sg19
F0.0
sg20
F0.0
sg21
F0.0
sg22
F0.0
sg23
F148.0
sg24
F0.0
sg25
F0.0
ssS'HICKERSON GARY J'
p96
(dp97
g3
F1320.0
sg4
F0.0
sg5
F98849.0
sg6
I00
sg7
F69223.0
sg8
F900.0
sg9
F40.0
sg10
F0.0
sg11
F0.0
sg12
F8.02689481934765
sg13
F0.0
sg14
F27.0
sg15
F1936.0
sg16
F0.0
sg17
F1.4814814814814814
sg18
F1700000.0
sg19
F441096.0
sg20
F1.0
sg21
F441096.0
sg22
F211788.0
sg23
F2081796.0
sg24
F0.0007575757575757576
sg25
F0.0
ssS'CLINE KENNETH W'
p98
(dp99
g3
F0.0
sg4
F0.0
sg5
F0.0
sg6
I00
sg7
F0.0
sg8
F0.0
sg9
F0.0
sg10
F0.0
sg11
F-472568.0
sg12
F0.0
sg13
F0.0
sg14
F0.0
sg15
F0.0
sg16
F0.0
sg17
F0.0
sg18
F0.0
sg19
F189518.0
sg20
F0.0
sg21
F662086.0
sg22
F0.0
sg23
F0.0
sg24
F0.0
sg25
F0.0
ssS'LEWIS RICHARD'
p100
(dp101
g3
F952.0
sg4
F0.0
sg5
F0.0
sg6
I00
sg7
F0.0
sg8
F739.0
sg9
F10.0
sg10
F0.0
sg11
F0.0
sg12
F0.0
sg13
F0.0
sg14
F26.0
sg15
F0.0
sg16
F0.0
sg17
F0.38461538461538464
sg18
F0.0
sg19
F850477.0
sg20
F0.0
sg21
F0.0
sg22
F0.0
sg23
F0.0
sg24
F0.0
sg25
F850477.0
ssS'HAYES ROBERT E'
p102
(dp103
g3
F504.0
sg4
F7961.0
sg5
F0.0
sg6
I00
sg7
F0.0
sg8
F50.0
sg9
F16.0
sg10
F0.0
sg11
F0.0
sg12
F0.0
sg13
F0.0
sg14
F12.0
sg15
F0.0
sg16
F0.0
sg17
F1.3333333333333333
sg18
F0.0
sg19
F151418.0
sg20
F0.0
sg21
F151418.0
sg22
F0.0
sg23
F7961.0
sg24
F0.0
sg25
F0.0
ssS'KOPPER MICHAEL J'
p104
(dp105
g3
F0.0
sg4
F0.0
sg5
F118134.0
sg6
I01
sg7
F602671.0
sg8
F0.0
sg9
F0.0
sg10
F0.0
sg11
F0.0
sg12
F3.5665723011078665
sg13
F0.0
sg14
F0.0
sg15
F907502.0
sg16
F0.0
sg17
F0.0
sg18
F800000.0
sg19
F985032.0
sg20
F0.0
sg21
F985032.0
sg22
F224305.0
sg23
F2652612.0
sg24
F0.0
sg25
F0.0
ssS'LEFF DANIEL P'
p106
(dp107
g3
F2822.0
sg4
F0.0
sg5
F0.0
sg6
I00
sg7
F1387399.0
sg8
F2672.0
sg9
F67.0
sg10
F0.0
sg11
F0.0
sg12
F3.653021414011529
sg13
F0.0
sg14
F63.0
sg15
F3083.0
sg16
F0.0
sg17
F1.0634920634920635
sg18
F1000000.0
sg19
F360528.0
sg20
F14.0
sg21
F360528.0
sg22
F273746.0
sg23
F2664228.0
sg24
F0.004961020552799433
sg25
F0.0
ssS'LAVORATO JOHN J'
p108
(dp109
g3
F7259.0
sg4
F0.0
sg5
F49537.0
sg6
I00
sg7
F2035380.0
sg8
F3962.0
sg9
F528.0
sg10
F0.0
sg11
F0.0
sg12
F23.57878852184575
sg13
F0.0
sg14
F2585.0
sg15
F1552.0
sg16
F0.0
sg17
F0.20425531914893616
sg18
F8000000.0
sg19
F5167144.0
sg20
F411.0
sg21
F1008149.0
sg22
F339288.0
sg23
F10425757.0
sg24
F0.05661936905909905
sg25
F4158995.0
ssS'BERBERIAN DAVID'
p110
(dp111
g3
F0.0
sg4
F0.0
sg5
F11892.0
sg6
I00
sg7
F0.0
sg8
F0.0
sg9
F0.0
sg10
F0.0
sg11
F0.0
sg12
F0.0
sg13
F0.0
sg14
F0.0
sg15
F0.0
sg16
F0.0
sg17
F0.0
sg18
F0.0
sg19
F2493616.0
sg20
F0.0
sg21
F869220.0
sg22
F216582.0
sg23
F228474.0
sg24
F0.0
sg25
F1624396.0
ssS'DETMERING TIMOTHY J'
p112
(dp113
g3
F0.0
sg4
F875307.0
sg5
F52255.0
sg6
I00
sg7
F415657.0
sg8
F0.0
sg9
F0.0
sg10
F-775241.0
sg11
F-315068.0
sg12
F2.019002375296912
sg13
F0.0
sg14
F0.0
sg15
F1105.0
sg16
F0.0
sg17
F0.0
sg18
F425000.0
sg19
F2027865.0
sg20
F0.0
sg21
F315068.0
sg22
F210500.0
sg23
F1204583.0
sg24
F0.0
sg25
F2027865.0
ssS'WAKEHAM JOHN'
p114
(dp115
g3
F0.0
sg4
F0.0
sg5
F103773.0
sg6
I00
sg7
F0.0
sg8
F0.0
sg9
F0.0
sg10
F0.0
sg11
F0.0
sg12
F0.0
sg13
F0.0
sg14
F0.0
sg15
F0.0
sg16
F109298.0
sg17
F0.0
sg18
F0.0
sg19
F0.0
sg20
F0.0
sg21
F0.0
sg22
F0.0
sg23
F213071.0
sg24
F0.0
sg25
F0.0
ssS'POWERS WILLIAM'
p116
(dp117
g3
F653.0
sg4
F0.0
sg5
F0.0
sg6
I00
sg7
F0.0
sg8
F12.0
sg9
F0.0
sg10
F-17500.0
sg11
F0.0
sg12
F0.0
sg13
F0.0
sg14
F26.0
sg15
F0.0
sg16
F17500.0
sg17
F0.0
sg18
F0.0
sg19
F0.0
sg20
F0.0
sg21
F0.0
sg22
F0.0
sg23
F0.0
sg24
F0.0
sg25
F0.0
ssS'GOLD JOSEPH'
p118
(dp119
g3
F0.0
sg4
F0.0
sg5
F0.0
sg6
I00
sg7
F304805.0
sg8
F0.0
sg9
F0.0
sg10
F0.0
sg11
F0.0
sg12
F2.748460861917326
sg13
F0.0
sg14
F0.0
sg15
F819288.0
sg16
F0.0
sg17
F0.0
sg18
F750000.0
sg19
F877611.0
sg20
F0.0
sg21
F441096.0
sg22
F272880.0
sg23
F2146973.0
sg24
F0.0
sg25
F436515.0
ssS'BANNANTINE JAMES M'
p120
(dp121
g3
F566.0
sg4
F0.0
sg5
F56301.0
sg6
I00
sg7
F0.0
sg8
F465.0
sg9
F39.0
sg10
F-5104.0
sg11
F-560222.0
sg12
F0.0
sg13
F0.0
sg14
F29.0
sg15
F864523.0
sg16
F0.0
sg17
F1.3448275862068966
sg18
F0.0
sg19
F5243487.0
sg20
F0.0
sg21
F1757552.0
sg22
F477.0
sg23
F916197.0
sg24
F0.0
sg25
F4046157.0
ssS'DUNCAN JOHN H'
p122
(dp123
g3
F0.0
sg4
F0.0
sg5
F0.0
sg6
I00
sg7
F0.0
sg8
F0.0
sg9
F0.0
sg10
F-25000.0
sg11
F0.0
sg12
F0.0
sg13
F0.0
sg14
F0.0
sg15
F0.0
sg16
F102492.0
sg17
F0.0
sg18
F0.0
sg19
F371750.0
sg20
F0.0
sg21
F0.0
sg22
F0.0
sg23
F77492.0
sg24
F0.0
sg25
F371750.0
ssS'SHAPIRO RICHARD S'
p124
(dp125
g3
F15149.0
sg4
F0.0
sg5
F137767.0
sg6
I00
sg7
F0.0
sg8
F4527.0
sg9
F74.0
sg10
F0.0
sg11
F0.0
sg12
F2.4156743819590005
sg13
F0.0
sg14
F1215.0
sg15
F705.0
sg16
F0.0
sg17
F0.060905349794238686
sg18
F650000.0
sg19
F987001.0
sg20
F65.0
sg21
F379164.0
sg22
F269076.0
sg23
F1057548.0
sg24
F0.004290712258234867
sg25
F607837.0
ssS'SHERRIFF JOHN R'
p126
(dp127
g3
F3187.0
sg4
F0.0
sg5
F0.0
sg6
I00
sg7
F554422.0
sg8
F2103.0
sg9
F28.0
sg10
F0.0
sg11
F0.0
sg12
F3.4982974952189934
sg13
F0.0
sg14
F92.0
sg15
F1852186.0
sg16
F0.0
sg17
F0.30434782608695654
sg18
F1500000.0
sg19
F3128982.0
sg20
F23.0
sg21
F1293424.0
sg22
F428780.0
sg23
F4335388.0
sg24
F0.0072168183244430495
sg25
F1835558.0
ssS'SHELBY REX'
p128
(dp129
g3
F225.0
sg4
F0.0
sg5
F22884.0
sg6
I01
sg7
F0.0
sg8
F91.0
sg9
F13.0
sg10
F-4167.0
sg11
F0.0
sg12
F0.9440909348388437
sg13
F0.0
sg14
F39.0
sg15
F1573324.0
sg16
F0.0
sg17
F0.3333333333333333
sg18
F200000.0
sg19
F2493616.0
sg20
F14.0
sg21
F869220.0
sg22
F211844.0
sg23
F2003885.0
sg24
F0.06222222222222222
sg25
F1624396.0
ssS'LEMAISTRE CHARLES'
p130
(dp131
g3
F0.0
sg4
F0.0
sg5
F0.0
sg6
I00
sg7
F0.0
sg8
F0.0
sg9
F0.0
sg10
F-25000.0
sg11
F0.0
sg12
F0.0
sg13
F0.0
sg14
F0.0
sg15
F0.0
sg16
F112492.0
sg17
F0.0
sg18
F0.0
sg19
F412878.0
sg20
F0.0
sg21
F0.0
sg22
F0.0
sg23
F87492.0
sg24
F0.0
sg25
F412878.0
ssS'DEFFNER JOSEPH M'
p132
(dp133
g3
F714.0
sg4
F0.0
sg5
F41626.0
sg6
I00
sg7
F335349.0
sg8
F552.0
sg9
F115.0
sg10
F0.0
sg11
F0.0
sg12
F2.910911551952494
sg13
F0.0
sg14
F74.0
sg15
F25553.0
sg16
F0.0
sg17
F1.554054054054054
sg18
F600000.0
sg19
F159211.0
sg20
F4.0
sg21
F141833.0
sg22
F206121.0
sg23
F1208649.0
sg24
F0.0056022408963585435
sg25
F17378.0
ssS'KISHKILL JOSEPH G'
p134
(dp135
g3
F0.0
sg4
F0.0
sg5
F116335.0
sg6
I00
sg7
F0.0
sg8
F0.0
sg9
F0.0
sg10
F-51042.0
sg11
F0.0
sg12
F0.0
sg13
F0.0
sg14
F0.0
sg15
F465357.0
sg16
F0.0
sg17
F0.0
sg18
F0.0
sg19
F1034346.0
sg20
F0.0
sg21
F1034346.0
sg22
F174246.0
sg23
F704896.0
sg24
F0.0
sg25
F0.0
ssS'WHALLEY LAWRENCE G'
p136
(dp137
g3
F6019.0
sg4
F0.0
sg5
F57838.0
sg6
I00
sg7
F808346.0
sg8
F3920.0
sg9
F186.0
sg10
F0.0
sg11
F0.0
sg12
F5.878157550297435
sg13
F0.0
sg14
F556.0
sg15
F301026.0
sg16
F0.0
sg17
F0.3345323741007194
sg18
F3000000.0
sg19
F6079137.0
sg20
F24.0
sg21
F2796177.0
sg22
F510364.0
sg23
F4677574.0
sg24
F0.003987373317826882
sg25
F3282960.0
ssS'PIRO JIM'
p138
(dp139
g3
F58.0
sg4
F0.0
sg5
F0.0
sg6
I00
sg7
F0.0
sg8
F3.0
sg9
F0.0
sg10
F0.0
sg11
F0.0
sg12
F0.0
sg13
F0.0
sg14
F16.0
sg15
F0.0
sg16
F0.0
sg17
F0.0
sg18
F0.0
sg19
F47304.0
sg20
F1.0
sg21
F47304.0
sg22
F0.0
sg23
F0.0
sg24
F0.017241379310344827
sg25
F0.0
ssS'MCCONNELL MICHAEL S'
p140
(dp141
g3
F3329.0
sg4
F0.0
sg5
F81364.0
sg6
I00
sg7
F554422.0
sg8
F2189.0
sg9
F92.0
sg10
F0.0
sg11
F0.0
sg12
F3.013384907872605
sg13
F0.0
sg14
F2742.0
sg15
F540.0
sg16
F0.0
sg17
F0.03355215171407731
sg18
F1100000.0
sg19
F3101279.0
sg20
F194.0
sg21
F1478269.0
sg22
F365038.0
sg23
F2101364.0
sg24
F0.058275758486031844
sg25
F1623010.0
ssS'DELAINEY DAVID W'
p142
(dp143
g3
F3093.0
sg4
F0.0
sg5
F86174.0
sg6
I01
sg7
F1294981.0
sg8
F2097.0
sg9
F66.0
sg10
F0.0
sg11
F0.0
sg12
F8.215509238340138
sg13
F0.0
sg14
F3069.0
sg15
F1661.0
sg16
F0.0
sg17
F0.021505376344086023
sg18
F3000000.0
sg19
F3614261.0
sg20
F609.0
sg21
F1323148.0
sg22
F365163.0
sg23
F4747979.0
sg24
F0.19689621726479145
sg25
F2291113.0
ssS'SULLIVAN-SHAKLOVITZ COLLEEN'
p144
(dp145
g3
F0.0
sg4
F181993.0
sg5
F0.0
sg6
I00
sg7
F554422.0
sg8
F0.0
sg9
F0.0
sg10
F0.0
sg11
F0.0
sg12
F0.6143298582741017
sg13
F0.0
sg14
F0.0
sg15
F162.0
sg16
F0.0
sg17
F0.0
sg18
F100000.0
sg19
F1362375.0
sg20
F0.0
sg21
F0.0
sg22
F162779.0
sg23
F999356.0
sg24
F0.0
sg25
F1362375.0
ssS'WROBEL BRUCE'
p146
(dp147
g3
F0.0
sg4
F0.0
sg5
F0.0
sg6
I00
sg7
F0.0
sg8
F0.0
sg9
F0.0
sg10
F0.0
sg11
F0.0
sg12
F0.0
sg13
F0.0
sg14
F0.0
sg15
F0.0
sg16
F0.0
sg17
F0.0
sg18
F0.0
sg19
F139130.0
sg20
F0.0
sg21
F0.0
sg22
F0.0
sg23
F0.0
sg24
F0.0
sg25
F139130.0
ssS'LINDHOLM TOD A'
p148
(dp149
g3
F0.0
sg4
F204075.0
sg5
F57727.0
sg6
I00
sg7
F175000.0
sg8
F0.0
sg9
F0.0
sg10
F0.0
sg11
F0.0
sg12
F0.8458197473536415
sg13
F0.0
sg14
F0.0
sg15
F2630.0
sg16
F0.0
sg17
F0.0
sg18
F200000.0
sg19
F3064208.0
sg20
F0.0
sg21
F514847.0
sg22
F236457.0
sg23
F875889.0
sg24
F0.0
sg25
F2549361.0
ssS'MEYER JEROME J'
p150
(dp151
g3
F0.0
sg4
F0.0
sg5
F2151.0
sg6
I00
sg7
F0.0
sg8
F0.0
sg9
F0.0
sg10
F-38346.0
sg11
F0.0
sg12
F0.0
sg13
F0.0
sg14
F0.0
sg15
F0.0
sg16
F38346.0
sg17
F0.0
sg18
F0.0
sg19
F0.0
sg20
F0.0
sg21
F0.0
sg22
F0.0
sg23
F2151.0
sg24
F0.0
sg25
F0.0
ssS'LAY KENNETH L'
p152
(dp153
g3
F4273.0
sg4
F202911.0
sg5
F99832.0
sg6
I01
sg7
F3600000.0
sg8
F2411.0
sg9
F123.0
sg10
F-300000.0
sg11
F0.0
sg12
F6.527896031132468
sg13
F81525000.0
sg14
F36.0
sg15
F10359729.0
sg16
F0.0
sg17
F3.4166666666666665
sg18
F7000000.0
sg19
F49110078.0
sg20
F16.0
sg21
F14761694.0
sg22
F1072321.0
sg23
F103559793.0
sg24
F0.003744441844137608
sg25
F34348384.0
ssS'BUTTS ROBERT H'
p154
(dp155
g3
F0.0
sg4
F0.0
sg5
F9410.0
sg6
I00
sg7
F175000.0
sg8
F0.0
sg9
F0.0
sg10
F-75000.0
sg11
F0.0
sg12
F2.8678933602532926
sg13
F0.0
sg14
F0.0
sg15
F150656.0
sg16
F0.0
sg17
F0.0
sg18
F750000.0
sg19
F417619.0
sg20
F0.0
sg21
F417619.0
sg22
F261516.0
sg23
F1271582.0
sg24
F0.0
sg25
F0.0
ssS'OLSON CINDY K'
p156
(dp157
g3
F1184.0
sg4
F77716.0
sg5
F63791.0
sg6
I00
sg7
F100000.0
sg8
F856.0
sg9
F20.0
sg10
F0.0
sg11
F0.0
sg12
F2.279094925823057
sg13
F0.0
sg14
F52.0
sg15
F972.0
sg16
F0.0
sg17
F0.38461538461538464
sg18
F750000.0
sg19
F2606763.0
sg20
F15.0
sg21
F969729.0
sg22
F329078.0
sg23
F1321557.0
sg24
F0.01266891891891892
sg25
F1637034.0
ssS'MCDONALD REBECCA'
p158
(dp159
g3
F894.0
sg4
F0.0
sg5
F0.0
sg6
I00
sg7
F0.0
sg8
F720.0
sg9
F54.0
sg10
F0.0
sg11
F0.0
sg12
F0.0
sg13
F0.0
sg14
F13.0
sg15
F0.0
sg16
F0.0
sg17
F4.153846153846154
sg18
F0.0
sg19
F1691366.0
sg20
F1.0
sg21
F934065.0
sg22
F0.0
sg23
F0.0
sg24
F0.0011185682326621924
sg25
F757301.0
ssS'CUMBERLAND MICHAEL S'
p160
(dp161
g3
F0.0
sg4
F0.0
sg5
F22344.0
sg6
I00
sg7
F275000.0
sg8
F0.0
sg9
F0.0
sg10
F0.0
sg11
F0.0
sg12
F1.7577163748857485
sg13
F0.0
sg14
F0.0
sg15
F713.0
sg16
F0.0
sg17
F0.0
sg18
F325000.0
sg19
F207940.0
sg20
F0.0
sg21
F207940.0
sg22
F184899.0
sg23
F807956.0
sg24
F0.0
sg25
F0.0
ssS'GAHN ROBERT S'
p162
(dp163
g3
F0.0
sg4
F73122.0
sg5
F50080.0
sg6
I00
sg7
F0.0
sg8
F0.0
sg9
F0.0
sg10
F-1042.0
sg11
F0.0
sg12
F2.6554622724053165
sg13
F0.0
sg14
F0.0
sg15
F76547.0
sg16
F0.0
sg17
F0.0
sg18
F509870.0
sg19
F318607.0
sg20
F0.0
sg21
F235370.0
sg22
F192008.0
sg23
F900585.0
sg24
F0.0
sg25
F83237.0
ssS'BADUM JAMES P'
p164
(dp165
g3
F0.0
sg4
F178980.0
sg5
F3486.0
sg6
I00
sg7
F0.0
sg8
F0.0
sg9
F0.0
sg10
F0.0
sg11
F0.0
sg12
F0.0
sg13
F0.0
sg14
F0.0
sg15
F0.0
sg16
F0.0
sg17
F0.0
sg18
F0.0
sg19
F257817.0
sg20
F0.0
sg21
F0.0
sg22
F0.0
sg23
F182466.0
sg24
F0.0
sg25
F257817.0
ssS'HERMANN ROBERT J'
p166
(dp167
g3
F0.0
sg4
F0.0
sg5
F48357.0
sg6
I00
sg7
F150000.0
sg8
F0.0
sg9
F0.0
sg10
F-280000.0
sg11
F0.0
sg12
F2.665011821231007
sg13
F0.0
sg14
F0.0
sg15
F416441.0
sg16
F0.0
sg17
F0.0
sg18
F700000.0
sg19
F668132.0
sg20
F0.0
sg21
F480632.0
sg22
F262663.0
sg23
F1297461.0
sg24
F0.0
sg25
F187500.0
ssS'FALLON JAMES B'
p168
(dp169
g3
F1755.0
sg4
F0.0
sg5
F95924.0
sg6
I00
sg7
F374347.0
sg8
F1604.0
sg9
F42.0
sg10
F0.0
sg11
F0.0
sg12
F8.207808580771403
sg13
F0.0
sg14
F75.0
sg15
F401481.0
sg16
F0.0
sg17
F0.56
sg18
F2500000.0
sg19
F2332399.0
sg20
F37.0
sg21
F1392142.0
sg22
F304588.0
sg23
F3676340.0
sg24
F0.021082621082621083
sg25
F940257.0
ssS'GATHMANN WILLIAM D'
p170
(dp171
g3
F0.0
sg4
F0.0
sg5
F0.0
sg6
I00
sg7
F0.0
sg8
F0.0
sg9
F0.0
sg10
F0.0
sg11
F-72419.0
sg12
F0.0
sg13
F0.0
sg14
F0.0
sg15
F0.0
sg16
F0.0
sg17
F0.0
sg18
F0.0
sg19
F1945360.0
sg20
F0.0
sg21
F264013.0
sg22
F0.0
sg23
F0.0
sg24
F0.0
sg25
F1753766.0
ssS'HORTON STANLEY C'
p172
(dp173
g3
F2350.0
sg4
F3131860.0
sg5
F0.0
sg6
I00
sg7
F0.0
sg8
F1074.0
sg9
F44.0
sg10
F0.0
sg11
F0.0
sg12
F0.0
sg13
F0.0
sg14
F1073.0
sg15
F0.0
sg16
F0.0
sg17
F0.04100652376514446
sg18
F0.0
sg19
F7256648.0
sg20
F15.0
sg21
F2046079.0
sg22
F0.0
sg23
F3131860.0
sg24
F0.006382978723404255
sg25
F5210569.0
ssS'BOWEN JR RAYMOND M'
p174
(dp175
g3
F1858.0
sg4
F0.0
sg5
F65907.0
sg6
I01
sg7
F974293.0
sg8
F1593.0
sg9
F140.0
sg10
F-833.0
sg11
F0.0
sg12
F4.845639462887786
sg13
F0.0
sg14
F27.0
sg15
F1621.0
sg16
F0.0
sg17
F5.185185185185185
sg18
F1350000.0
sg19
F252055.0
sg20
F15.0
sg21
F252055.0
sg22
F278601.0
sg23
F2669589.0
sg24
F0.008073196986006458
sg25
F0.0
ssS'GILLIS JOHN'
p176
(dp177
g3
F0.0
sg4
F0.0
sg5
F0.0
sg6
I00
sg7
F0.0
sg8
F0.0
sg9
F0.0
sg10
F0.0
sg11
F0.0
sg12
F0.0
sg13
F0.0
sg14
F0.0
sg15
F0.0
sg16
F0.0
sg17
F0.0
sg18
F0.0
sg19
F85641.0
sg20
F0.0
sg21
F75838.0
sg22
F0.0
sg23
F0.0
sg24
F0.0
sg25
F9803.0
ssS'FITZGERALD JAY L'
p178
(dp179
g3
F936.0
sg4
F0.0
sg5
F23870.0
sg6
I00
sg7
F556416.0
sg8
F723.0
sg9
F1.0
sg10
F0.0
sg11
F0.0
sg12
F1.7574074724965731
sg13
F0.0
sg14
F16.0
sg15
F285414.0
sg16
F0.0
sg17
F0.0625
sg18
F350000.0
sg19
F1621236.0
sg20
F8.0
sg21
F956775.0
sg22
F199157.0
sg23
F1414857.0
sg24
F0.008547008547008548
sg25
F664461.0
ssS'MORAN MICHAEL P'
p180
(dp181
g3
F672.0
sg4
F0.0
sg5
F0.0
sg6
I00
sg7
F0.0
sg8
F127.0
sg9
F0.0
sg10
F0.0
sg11
F0.0
sg12
F0.0
sg13
F0.0
sg14
F19.0
sg15
F0.0
sg16
F0.0
sg17
F0.0
sg18
F0.0
sg19
F221141.0
sg20
F0.0
sg21
F161602.0
sg22
F0.0
sg23
F0.0
sg24
F0.0
sg25
F59539.0
ssS'REDMOND BRIAN L'
p182
(dp183
g3
F1671.0
sg4
F0.0
sg5
F14689.0
sg6
I00
sg7
F0.0
sg8
F1063.0
sg9
F204.0
sg10
F0.0
sg11
F0.0
sg12
F0.0
sg13
F0.0
sg14
F221.0
sg15
F0.0
sg16
F0.0
sg17
F0.9230769230769231
sg18
F0.0
sg19
F7890324.0
sg20
F49.0
sg21
F381285.0
sg22
F96840.0
sg23
F111529.0
sg24
F0.029323758228605626
sg25
F7509039.0
ssS'BAZELIDES PHILIP J'
p184
(dp185
g3
F0.0
sg4
F684694.0
sg5
F0.0
sg6
I00
sg7
F93750.0
sg8
F0.0
sg9
F0.0
sg10
F0.0
sg11
F0.0
sg12
F0.0
sg13
F0.0
sg14
F0.0
sg15
F874.0
sg16
F0.0
sg17
F0.0
sg18
F0.0
sg19
F1599641.0
sg20
F0.0
sg21
F0.0
sg22
F80818.0
sg23
F860136.0
sg24
F0.0
sg25
F1599641.0
ssS'BELDEN TIMOTHY N'
p186
(dp187
g3
F7991.0
sg4
F2144013.0
sg5
F17355.0
sg6
I01
sg7
F0.0
sg8
F5521.0
sg9
F228.0
sg10
F-2334434.0
sg11
F0.0
sg12
F24.532820246823583
sg13
F0.0
sg14
F484.0
sg15
F210698.0
sg16
F0.0
sg17
F0.47107438016528924
sg18
F5249999.0
sg19
F1110705.0
sg20
F108.0
sg21
F157569.0
sg22
F213999.0
sg23
F5501630.0
sg24
F0.013515204605180828
sg25
F953136.0
ssS'DIMICHELE RICHARD G'
p188
(dp189
g3
F0.0
sg4
F0.0
sg5
F35812.0
sg6
I00
sg7
F694862.0
sg8
F0.0
sg9
F0.0
sg10
F0.0
sg11
F0.0
sg12
F3.8053487982708494
sg13
F0.0
sg14
F0.0
sg15
F374689.0
sg16
F0.0
sg17
F0.0
sg18
F1000000.0
sg19
F8317782.0
sg20
F0.0
sg21
F126027.0
sg22
F262788.0
sg23
F2368151.0
sg24
F0.0
sg25
F8191755.0
ssS'DURAN WILLIAM D'
p190
(dp191
g3
F904.0
sg4
F0.0
sg5
F25785.0
sg6
I00
sg7
F1105218.0
sg8
F599.0
sg9
F106.0
sg10
F0.0
sg11
F0.0
sg12
F3.559698517266911
sg13
F0.0
sg14
F12.0
sg15
F1568.0
sg16
F0.0
sg17
F8.833333333333334
sg18
F750000.0
sg19
F1640910.0
sg20
F3.0
sg21
F189041.0
sg22
F210692.0
sg23
F2093263.0
sg24
F0.00331858407079646
sg25
F1451869.0
ssS'THORN TERENCE H'
p192
(dp193
g3
F266.0
sg4
F16586.0
sg5
F46145.0
sg6
I00
sg7
F200000.0
sg8
F73.0
sg9
F0.0
sg10
F0.0
sg11
F0.0
sg12
F0.0
sg13
F0.0
sg14
F41.0
sg15
F426629.0
sg16
F0.0
sg17
F0.0
sg18
F0.0
sg19
F4817796.0
sg20
F0.0
sg21
F365320.0
sg22
F222093.0
sg23
F911453.0
sg24
F0.0
sg25
F4452476.0
ssS'FASTOW ANDREW S'
p194
(dp195
g3
F0.0
sg4
F0.0
sg5
F55921.0
sg6
I01
sg7
F1736055.0
sg8
F0.0
sg9
F0.0
sg10
F-1386055.0
sg11
F0.0
sg12
F2.949865894558178
sg13
F0.0
sg14
F0.0
sg15
F277464.0
sg16
F0.0
sg17
F0.0
sg18
F1300000.0
sg19
F1794412.0
sg20
F0.0
sg21
F1794412.0
sg22
F440698.0
sg23
F2424083.0
sg24
F0.0
sg25
F0.0
ssS'FOY JOE'
p196
(dp197
g3
F57.0
sg4
F181755.0
sg5
F0.0
sg6
I00
sg7
F0.0
sg8
F2.0
sg9
F0.0
sg10
F0.0
sg11
F0.0
sg12
F0.0
sg13
F0.0
sg14
F13.0
sg15
F0.0
sg16
F0.0
sg17
F0.0
sg18
F0.0
sg19
F343434.0
sg20
F0.0
sg21
F0.0
sg22
F0.0
sg23
F181755.0
sg24
F0.0
sg25
F343434.0
ssS'CALGER CHRISTOPHER F'
p198
(dp199
g3
F2598.0
sg4
F0.0
sg5
F35818.0
sg6
I01
sg7
F375304.0
sg8
F2188.0
sg9
F199.0
sg10
F-262500.0
sg11
F0.0
sg12
F5.204234998272194
sg13
F0.0
sg14
F144.0
sg15
F486.0
sg16
F0.0
sg17
F1.3819444444444444
sg18
F1250000.0
sg19
F126027.0
sg20
F25.0
sg21
F126027.0
sg22
F240189.0
sg23
F1639297.0
sg24
F0.00962278675904542
sg25
F0.0
ssS'RICE KENNETH D'
p200
(dp201
g3
F905.0
sg4
F0.0
sg5
F46950.0
sg6
I01
sg7
F1617011.0
sg8
F864.0
sg9
F42.0
sg10
F-3504386.0
sg11
F0.0
sg12
F4.160366682832663
sg13
F0.0
sg14
F18.0
sg15
F174839.0
sg16
F0.0
sg17
F2.3333333333333335
sg18
F1750000.0
sg19
F22542539.0
sg20
F4.0
sg21
F2748364.0
sg22
F420636.0
sg23
F505050.0
sg24
F0.004419889502762431
sg25
F19794175.0
ssS'KAMINSKI WINCENTY J'
p202
(dp203
g3
F4607.0
sg4
F0.0
sg5
F83585.0
sg6
I00
sg7
F323466.0
sg8
F583.0
sg9
F41.0
sg10
F0.0
sg11
F0.0
sg12
F1.4540114357999425
sg13
F0.0
sg14
F14368.0
sg15
F4669.0
sg16
F0.0
sg17
F0.002853563474387528
sg18
F400000.0
sg19
F976037.0
sg20
F171.0
sg21
F126027.0
sg22
F275101.0
sg23
F1086821.0
sg24
F0.03711742999782939
sg25
F850010.0
ssS'LOCKHART EUGENE E'
p204
(dp205
g3
F0.0
sg4
F0.0
sg5
F0.0
sg6
I00
sg7
F0.0
sg8
F0.0
sg9
F0.0
sg10
F0.0
sg11
F0.0
sg12
F0.0
sg13
F0.0
sg14
F0.0
sg15
F0.0
sg16
F0.0
sg17
F0.0
sg18
F0.0
sg19
F0.0
sg20
F0.0
sg21
F0.0
sg22
F0.0
sg23
F0.0
sg24
F0.0
sg25
F0.0
ssS'COX DAVID'
p206
(dp207
g3
F102.0
sg4
F0.0
sg5
F27861.0
sg6
I00
sg7
F0.0
sg8
F71.0
sg9
F0.0
sg10
F-41250.0
sg11
F0.0
sg12
F2.5454360331924857
sg13
F0.0
sg14
F33.0
sg15
F494.0
sg16
F0.0
sg17
F0.0
sg18
F800000.0
sg19
F495633.0
sg20
F4.0
sg21
F378082.0
sg22
F314288.0
sg23
F1101393.0
sg24
F0.0392156862745098
sg25
F117551.0
ssS'OVERDYKE JR JERE C'
p208
(dp209
g3
F0.0
sg4
F0.0
sg5
F18834.0
sg6
I00
sg7
F135836.0
sg8
F0.0
sg9
F0.0
sg10
F0.0
sg11
F0.0
sg12
F0.0
sg13
F0.0
sg14
F0.0
sg15
F176.0
sg16
F0.0
sg17
F0.0
sg18
F0.0
sg19
F7307594.0
sg20
F0.0
sg21
F2041016.0
sg22
F94941.0
sg23
F249787.0
sg24
F0.0
sg25
F5266578.0
ssS'PEREIRA PAULO V. FERRAZ'
p210
(dp211
g3
F0.0
sg4
F0.0
sg5
F27942.0
sg6
I00
sg7
F0.0
sg8
F0.0
sg9
F0.0
sg10
F-101250.0
sg11
F0.0
sg12
F0.0
sg13
F0.0
sg14
F0.0
sg15
F0.0
sg16
F101250.0
sg17
F0.0
sg18
F0.0
sg19
F0.0
sg20
F0.0
sg21
F0.0
sg22
F0.0
sg23
F27942.0
sg24
F0.0
sg25
F0.0
ssS'STABLER FRANK'
p212
(dp213
g3
F0.0
sg4
F0.0
sg5
F16514.0
sg6
I00
sg7
F0.0
sg8
F0.0
sg9
F0.0
sg10
F0.0
sg11
F0.0
sg12
F2.0876652387036434
sg13
F0.0
sg14
F0.0
sg15
F356071.0
sg16
F0.0
sg17
F0.0
sg18
F500000.0
sg19
F511734.0
sg20
F0.0
sg21
F511734.0
sg22
F239502.0
sg23
F1112087.0
sg24
F0.0
sg25
F0.0
ssS'SKILLING JEFFREY K'
p214
(dp215
g3
F3627.0
sg4
F0.0
sg5
F29336.0
sg6
I01
sg7
F1920000.0
sg8
F2042.0
sg9
F88.0
sg10
F0.0
sg11
F0.0
sg12
F5.03933380007163
sg13
F0.0
sg14
F108.0
sg15
F22122.0
sg16
F0.0
sg17
F0.8148148148148148
sg18
F5600000.0
sg19
F26093672.0
sg20
F30.0
sg21
F6843672.0
sg22
F1111258.0
sg23
F8682716.0
sg24
F0.008271298593879239
sg25
F19250000.0
ssS'BLAKE JR. NORMAN P'
p216
(dp217
g3
F0.0
sg4
F0.0
sg5
F1279.0
sg6
I00
sg7
F0.0
sg8
F0.0
sg9
F0.0
sg10
F-113784.0
sg11
F0.0
sg12
F0.0
sg13
F0.0
sg14
F0.0
sg15
F0.0
sg16
F113784.0
sg17
F0.0
sg18
F0.0
sg19
F0.0
sg20
F0.0
sg21
F0.0
sg22
F0.0
sg23
F1279.0
sg24
F0.0
sg25
F0.0
ssS'SHERRICK JEFFREY B'
p218
(dp219
g3
F613.0
sg4
F0.0
sg5
F0.0
sg6
I00
sg7
F0.0
sg8
F583.0
sg9
F39.0
sg10
F0.0
sg11
F0.0
sg12
F0.0
sg13
F0.0
sg14
F25.0
sg15
F0.0
sg16
F0.0
sg17
F1.56
sg18
F0.0
sg19
F1832468.0
sg20
F18.0
sg21
F405999.0
sg22
F0.0
sg23
F0.0
sg24
F0.02936378466557912
sg25
F1426469.0
ssS'PRENTICE JAMES'
p220
(dp221
g3
F0.0
sg4
F564348.0
sg5
F0.0
sg6
I00
sg7
F0.0
sg8
F0.0
sg9
F0.0
sg10
F0.0
sg11
F0.0
sg12
F0.0
sg13
F0.0
sg14
F0.0
sg15
F0.0
sg16
F0.0
sg17
F0.0
sg18
F0.0
sg19
F1095040.0
sg20
F0.0
sg21
F208809.0
sg22
F0.0
sg23
F564348.0
sg24
F0.0
sg25
F886231.0
ssS'GRAY RODNEY'
p222
(dp223
g3
F0.0
sg4
F93585.0
sg5
F0.0
sg6
I00
sg7
F365625.0
sg8
F0.0
sg9
F0.0
sg10
F0.0
sg11
F0.0
sg12
F0.0
sg13
F0.0
sg14
F0.0
sg15
F680833.0
sg16
F0.0
sg17
F0.0
sg18
F0.0
sg19
F0.0
sg20
F0.0
sg21
F0.0
sg22
F6615.0
sg23
F1146658.0
sg24
F0.0
sg25
F0.0
ssS'UMANOFF ADAM S'
p224
(dp225
g3
F111.0
sg4
F0.0
sg5
F53122.0
sg6
I00
sg7
F0.0
sg8
F41.0
sg9
F12.0
sg10
F0.0
sg11
F0.0
sg12
F2.7331256562100426
sg13
F0.0
sg14
F18.0
sg15
F0.0
sg16
F0.0
sg17
F0.6666666666666666
sg18
F788750.0
sg19
F0.0
sg20
F0.0
sg21
F0.0
sg22
F288589.0
sg23
F1130461.0
sg24
F0.0
sg25
F0.0
ssS'KEAN STEVEN J'
p226
(dp227
g3
F12754.0
sg4
F0.0
sg5
F41953.0
sg6
I00
sg7
F300000.0
sg8
F3639.0
sg9
F140.0
sg10
F0.0
sg11
F0.0
sg12
F2.473178380463869
sg13
F0.0
sg14
F6759.0
sg15
F1231.0
sg16
F0.0
sg17
F0.020713123243083296
sg18
F1000000.0
sg19
F6153642.0
sg20
F387.0
sg21
F4131594.0
sg22
F404338.0
sg23
F1747522.0
sg24
F0.03034342167163243
sg25
F2022048.0
ssS'FOWLER PEGGY'
p228
(dp229
g3
F517.0
sg4
F0.0
sg5
F0.0
sg6
I00
sg7
F0.0
sg8
F10.0
sg9
F0.0
sg10
F0.0
sg11
F0.0
sg12
F0.0
sg13
F0.0
sg14
F36.0
sg15
F0.0
sg16
F0.0
sg17
F0.0
sg18
F0.0
sg19
F1884748.0
sg20
F0.0
sg21
F560170.0
sg22
F0.0
sg23
F0.0
sg24
F0.0
sg25
F1324578.0
ssS'WASAFF GEORGE'
p230
(dp231
g3
F400.0
sg4
F831299.0
sg5
F0.0
sg6
I00
sg7
F200000.0
sg8
F337.0
sg9
F22.0
sg10
F-583325.0
sg11
F0.0
sg12
F1.2500192310650933
sg13
F0.0
sg14
F30.0
sg15
F1425.0
sg16
F0.0
sg17
F0.7333333333333333
sg18
F325000.0
sg19
F2056427.0
sg20
F7.0
sg21
F388167.0
sg22
F259996.0
sg23
F1034395.0
sg24
F0.0175
sg25
F1668260.0
ssS'WHITE JR THOMAS E'
p232
(dp233
g3
F0.0
sg4
F0.0
sg5
F81353.0
sg6
I00
sg7
F0.0
sg8
F0.0
sg9
F0.0
sg10
F0.0
sg11
F0.0
sg12
F1.417130908254945
sg13
F0.0
sg14
F0.0
sg15
F1085463.0
sg16
F0.0
sg17
F0.0
sg18
F450000.0
sg19
F15144123.0
sg20
F0.0
sg21
F13847074.0
sg22
F317543.0
sg23
F1934359.0
sg24
F0.0
sg25
F1297049.0
ssS'CHRISTODOULOU DIOMEDES'
p234
(dp235
g3
F0.0
sg4
F0.0
sg5
F0.0
sg6
I00
sg7
F0.0
sg8
F0.0
sg9
F0.0
sg10
F0.0
sg11
F0.0
sg12
F0.0
sg13
F0.0
sg14
F0.0
sg15
F0.0
sg16
F0.0
sg17
F0.0
sg18
F0.0
sg19
F6077885.0
sg20
F0.0
sg21
F950730.0
sg22
F0.0
sg23
F0.0
sg24
F0.0
sg25
F5127155.0
ssS'ALLEN PHILLIP K'
p236
(dp237
g3
F2902.0
sg4
F2869717.0
sg5
F13868.0
sg6
I00
sg7
F304805.0
sg8
F1407.0
sg9
F47.0
sg10
F-3081055.0
sg11
F-126027.0
sg12
F20.672922185635414
sg13
F0.0
sg14
F2195.0
sg15
F152.0
sg16
F0.0
sg17
F0.0214123006833713
sg18
F4175000.0
sg19
F1729541.0
sg20
F65.0
sg21
F126027.0
sg22
F201955.0
sg23
F4484442.0
sg24
F0.022398345968297727
sg25
F1729541.0
ssS'SHARP VICTORIA T'
p238
(dp239
g3
F3136.0
sg4
F187469.0
sg5
F116337.0
sg6
I00
sg7
F422158.0
sg8
F2477.0
sg9
F24.0
sg10
F0.0
sg11
F0.0
sg12
F2.417931379107461
sg13
F0.0
sg14
F136.0
sg15
F2401.0
sg16
F0.0
sg17
F0.17647058823529413
sg18
F600000.0
sg19
F494136.0
sg20
F6.0
sg21
F213063.0
sg22
F248146.0
sg23
F1576511.0
sg24
F0.001913265306122449
sg25
F281073.0
ssS'JAEDICKE ROBERT'
p240
(dp241
g3
F0.0
sg4
F0.0
sg5
F0.0
sg6
I00
sg7
F0.0
sg8
F0.0
sg9
F0.0
sg10
F-25000.0
sg11
F-44093.0
sg12
F0.0
sg13
F0.0
sg14
F0.0
sg15
F0.0
sg16
F108750.0
sg17
F0.0
sg18
F0.0
sg19
F431750.0
sg20
F0.0
sg21
F44093.0
sg22
F0.0
sg23
F83750.0
sg24
F0.0
sg25
F431750.0
ssS'WINOKUR JR. HERBERT S'
p242
(dp243
g3
F0.0
sg4
F0.0
sg5
F1413.0
sg6
I00
sg7
F0.0
sg8
F0.0
sg9
F0.0
sg10
F-25000.0
sg11
F0.0
sg12
F0.0
sg13
F0.0
sg14
F0.0
sg15
F0.0
sg16
F108579.0
sg17
F0.0
sg18
F0.0
sg19
F0.0
sg20
F0.0
sg21
F0.0
sg22
F0.0
sg23
F84992.0
sg24
F0.0
sg25
F0.0
ssS'BROWN MICHAEL'
p244
(dp245
g3
F1486.0
sg4
F0.0
sg5
F49288.0
sg6
I00
sg7
F0.0
sg8
F761.0
sg9
F13.0
sg10
F0.0
sg11
F0.0
sg12
F0.0
sg13
F0.0
sg14
F41.0
sg15
F0.0
sg16
F0.0
sg17
F0.3170731707317073
sg18
F0.0
sg19
F0.0
sg20
F1.0
sg21
F0.0
sg22
F0.0
sg23
F49288.0
sg24
F0.0006729475100942127
sg25
F0.0
ssS'MCCLELLAN GEORGE'
p246
(dp247
g3
F1744.0
sg4
F0.0
sg5
F228763.0
sg6
I00
sg7
F0.0
sg8
F1469.0
sg9
F52.0
sg10
F-125000.0
sg11
F0.0
sg12
F3.4166878627858153
sg13
F0.0
sg14
F49.0
sg15
F51587.0
sg16
F0.0
sg17
F1.0612244897959184
sg18
F900000.0
sg19
F947861.0
sg20
F0.0
sg21
F441096.0
sg22
F263413.0
sg23
F1318763.0
sg24
F0.0
sg25
F506765.0
ssS'HUGHES JAMES A'
p248
(dp249
g3
F719.0
sg4
F0.0
sg5
F0.0
sg6
I00
sg7
F0.0
sg8
F589.0
sg9
F35.0
sg10
F0.0
sg11
F0.0
sg12
F0.0
sg13
F0.0
sg14
F34.0
sg15
F0.0
sg16
F0.0
sg17
F1.0294117647058822
sg18
F0.0
sg19
F1118394.0
sg20
F5.0
sg21
F363428.0
sg22
F0.0
sg23
F0.0
sg24
F0.006954102920723227
sg25
F754966.0
ssS'REYNOLDS LAWRENCE'
p250
(dp251
g3
F0.0
sg4
F51365.0
sg5
F8409.0
sg6
I00
sg7
F156250.0
sg8
F0.0
sg9
F0.0
sg10
F-200000.0
sg11
F-140264.0
sg12
F1.3089176559902616
sg13
F0.0
sg14
F0.0
sg15
F202052.0
sg16
F0.0
sg17
F0.0
sg18
F100000.0
sg19
F4221891.0
sg20
F0.0
sg21
F201483.0
sg22
F76399.0
sg23
F394475.0
sg24
F0.0
sg25
F4160672.0
ssS'PICKERING MARK R'
p252
(dp253
g3
F898.0
sg4
F0.0
sg5
F31653.0
sg6
I00
sg7
F0.0
sg8
F728.0
sg9
F7.0
sg10
F0.0
sg11
F0.0
sg12
F0.45798939601885086
sg13
F400000.0
sg14
F67.0
sg15
F0.0
sg16
F0.0
sg17
F0.1044776119402985
sg18
F300000.0
sg19
F28798.0
sg20
F0.0
sg21
F0.0
sg22
F655037.0
sg23
F1386690.0
sg24
F0.0
sg25
F28798.0
ssS'CARTER REBECCA C'
p254
(dp255
g3
F312.0
sg4
F0.0
sg5
F0.0
sg6
I00
sg7
F75000.0
sg8
F196.0
sg9
F29.0
sg10
F-159792.0
sg11
F-307301.0
sg12
F1.14587351848103
sg13
F0.0
sg14
F15.0
sg15
F540.0
sg16
F0.0
sg17
F1.9333333333333333
sg18
F300000.0
sg19
F0.0
sg20
F7.0
sg21
F307301.0
sg22
F261809.0
sg23
F477557.0
sg24
F0.022435897435897436
sg25
F0.0
ssS'BUCHANAN HAROLD G'
p256
(dp257
g3
F1088.0
sg4
F0.0
sg5
F600.0
sg6
I00
sg7
F304805.0
sg8
F23.0
sg9
F0.0
sg10
F0.0
sg11
F0.0
sg12
F2.015990839337626
sg13
F0.0
sg14
F125.0
sg15
F1215.0
sg16
F0.0
sg17
F0.0
sg18
F500000.0
sg19
F1014505.0
sg20
F0.0
sg21
F189041.0
sg22
F248017.0
sg23
F1054637.0
sg24
F0.0
sg25
F825464.0
ssS'YEAP SOON'
p258
(dp259
g3
F0.0
sg4
F0.0
sg5
F55097.0
sg6
I00
sg7
F0.0
sg8
F0.0
sg9
F0.0
sg10
F0.0
sg11
F0.0
sg12
F0.0
sg13
F0.0
sg14
F0.0
sg15
F0.0
sg16
F0.0
sg17
F0.0
sg18
F0.0
sg19
F192758.0
sg20
F0.0
sg21
F0.0
sg22
F0.0
sg23
F55097.0
sg24
F0.0
sg25
F192758.0
ssS'MURRAY JULIA H'
p260
(dp261
g3
F2192.0
sg4
F0.0
sg5
F57580.0
sg6
I00
sg7
F125000.0
sg8
F395.0
sg9
F11.0
sg10
F0.0
sg11
F0.0
sg12
F1.744561330053558
sg13
F0.0
sg14
F45.0
sg15
F330.0
sg16
F0.0
sg17
F0.24444444444444444
sg18
F400000.0
sg19
F597461.0
sg20
F2.0
sg21
F196983.0
sg22
F229284.0
sg23
F812194.0
sg24
F0.0009124087591240876
sg25
F400478.0
ssS'GARLAND C KEVIN'
p262
(dp263
g3
F209.0
sg4
F0.0
sg5
F48405.0
sg6
I00
sg7
F375304.0
sg8
F178.0
sg9
F10.0
sg10
F0.0
sg11
F0.0
sg12
F3.6646460814155017
sg13
F0.0
sg14
F44.0
sg15
F60814.0
sg16
F0.0
sg17
F0.22727272727272727
sg18
F850000.0
sg19
F896153.0
sg20
F27.0
sg21
F259907.0
sg22
F231946.0
sg23
F1566469.0
sg24
F0.1291866028708134
sg25
F636246.0
ssS'DODSON KEITH'
p264
(dp265
g3
F176.0
sg4
F0.0
sg5
F28164.0
sg6
I00
sg7
F0.0
sg8
F114.0
sg9
F10.0
sg10
F0.0
sg11
F0.0
sg12
F0.3167377818400655
sg13
F0.0
sg14
F14.0
sg15
F774.0
sg16
F0.0
sg17
F0.7142857142857143
sg18
F70000.0
sg19
F0.0
sg20
F3.0
sg21
F0.0
sg22
F221003.0
sg23
F319941.0
sg24
F0.017045454545454544
sg25
F0.0
ssS'YEAGER F SCOTT'
p266
(dp267
g3
F0.0
sg4
F0.0
sg5
F53947.0
sg6
I01
sg7
F0.0
sg8
F0.0
sg9
F0.0
sg10
F0.0
sg11
F0.0
sg12
F0.0
sg13
F0.0
sg14
F0.0
sg15
F147950.0
sg16
F0.0
sg17
F0.0
sg18
F0.0
sg19
F11884758.0
sg20
F0.0
sg21
F3576206.0
sg22
F158403.0
sg23
F360300.0
sg24
F0.0
sg25
F8308552.0
ssS'HIRKO JOSEPH'
p268
(dp269
g3
F0.0
sg4
F10259.0
sg5
F77978.0
sg6
I01
sg7
F0.0
sg8
F0.0
sg9
F0.0
sg10
F0.0
sg11
F0.0
sg12
F0.0
sg13
F0.0
sg14
F0.0
sg15
F2856.0
sg16
F0.0
sg17
F0.0
sg18
F0.0
sg19
F30766064.0
sg20
F0.0
sg21
F0.0
sg22
F0.0
sg23
F91093.0
sg24
F0.0
sg25
F30766064.0
ssS'DIETRICH JANET R'
p270
(dp271
g3
F2572.0
sg4
F0.0
sg5
F3475.0
sg6
I00
sg7
F556416.0
sg8
F1902.0
sg9
F305.0
sg10
F0.0
sg11
F0.0
sg12
F2.3990403838464616
sg13
F0.0
sg14
F63.0
sg15
F473.0
sg16
F0.0
sg17
F4.841269841269841
sg18
F600000.0
sg19
F1865087.0
sg20
F14.0
sg21
F315068.0
sg22
F250100.0
sg23
F1410464.0
sg24
F0.005443234836702955
sg25
F1550019.0
ssS'DERRICK JR. JAMES V'
p272
(dp273
g3
F2181.0
sg4
F0.0
sg5
F51124.0
sg6
I00
sg7
F484000.0
sg8
F1401.0
sg9
F64.0
sg10
F-1284000.0
sg11
F-1787380.0
sg12
F1.6247778624016247
sg13
F0.0
sg14
F909.0
sg15
F7482.0
sg16
F0.0
sg17
F0.0704070407040704
sg18
F800000.0
sg19
F8831913.0
sg20
F20.0
sg21
F1787380.0
sg22
F492375.0
sg23
F550981.0
sg24
F0.009170105456212746
sg25
F8831913.0
ssS'PAI LOU L'
p274
(dp275
g3
F0.0
sg4
F0.0
sg5
F32047.0
sg6
I00
sg7
F0.0
sg8
F0.0
sg9
F0.0
sg10
F0.0
sg11
F0.0
sg12
F3.8185574253758414
sg13
F0.0
sg14
F0.0
sg15
F1829457.0
sg16
F0.0
sg17
F0.0
sg18
F1000000.0
sg19
F23817930.0
sg20
F0.0
sg21
F8453763.0
sg22
F261879.0
sg23
F3123383.0
sg24
F0.0
sg25
F15364167.0
ssS'HAYSLETT RODERICK J'
p276
(dp277
g3
F2649.0
sg4
F0.0
sg5
F0.0
sg6
I00
sg7
F0.0
sg8
F571.0
sg9
F35.0
sg10
F0.0
sg11
F0.0
sg12
F0.0
sg13
F0.0
sg14
F1061.0
sg15
F0.0
sg16
F0.0
sg17
F0.03298774740810556
sg18
F0.0
sg19
F346663.0
sg20
F38.0
sg21
F346663.0
sg22
F0.0
sg23
F0.0
sg24
F0.014345035862589657
sg25
F0.0
ssS'BAY FRANKLIN R'
p278
(dp279
g3
F0.0
sg4
F260455.0
sg5
F129142.0
sg6
I00
sg7
F0.0
sg8
F0.0
sg9
F0.0
sg10
F-201641.0
sg11
F-82782.0
sg12
F1.6689545251615756
sg13
F0.0
sg14
F0.0
sg15
F69.0
sg16
F0.0
sg17
F0.0
sg18
F400000.0
sg19
F63014.0
sg20
F0.0
sg21
F145796.0
sg22
F239671.0
sg23
F827696.0
sg24
F0.0
sg25
F0.0
ssS'MCCARTY DANNY J'
p280
(dp281
g3
F1433.0
sg4
F0.0
sg5
F0.0
sg6
I00
sg7
F0.0
sg8
F508.0
sg9
F25.0
sg10
F0.0
sg11
F0.0
sg12
F0.0
sg13
F0.0
sg14
F215.0
sg15
F0.0
sg16
F0.0
sg17
F0.11627906976744186
sg18
F0.0
sg19
F758931.0
sg20
F2.0
sg21
F94556.0
sg22
F0.0
sg23
F0.0
sg24
F0.0013956734124214933
sg25
F664375.0
ssS'FUGH JOHN L'
p282
(dp283
g3
F0.0
sg4
F50591.0
sg5
F0.0
sg6
I00
sg7
F0.0
sg8
F0.0
sg9
F0.0
sg10
F0.0
sg11
F0.0
sg12
F0.0
sg13
F0.0
sg14
F0.0
sg15
F0.0
sg16
F0.0
sg17
F0.0
sg18
F0.0
sg19
F176378.0
sg20
F0.0
sg21
F0.0
sg22
F0.0
sg23
F50591.0
sg24
F0.0
sg25
F176378.0
ssS'SCRIMSHAW MATTHEW'
p284
(dp285
g3
F0.0
sg4
F0.0
sg5
F0.0
sg6
I00
sg7
F0.0
sg8
F0.0
sg9
F0.0
sg10
F0.0
sg11
F0.0
sg12
F0.0
sg13
F0.0
sg14
F0.0
sg15
F0.0
sg16
F0.0
sg17
F0.0
sg18
F0.0
sg19
F759557.0
sg20
F0.0
sg21
F0.0
sg22
F0.0
sg23
F0.0
sg24
F0.0
sg25
F759557.0
ssS'KOENIG MARK E'
p286
(dp287
g3
F2374.0
sg4
F0.0
sg5
F127017.0
sg6
I01
sg7
F300000.0
sg8
F2271.0
sg9
F53.0
sg10
F0.0
sg11
F0.0
sg12
F2.2584579249288588
sg13
F0.0
sg14
F61.0
sg15
F150458.0
sg16
F0.0
sg17
F0.8688524590163934
sg18
F700000.0
sg19
F1920055.0
sg20
F15.0
sg21
F1248318.0
sg22
F309946.0
sg23
F1587421.0
sg24
F0.006318449873631003
sg25
F671737.0
ssS'SAVAGE FRANK'
p288
(dp289
g3
F0.0
sg4
F0.0
sg5
F0.0
sg6
I00
sg7
F0.0
sg8
F0.0
sg9
F0.0
sg10
F-121284.0
sg11
F0.0
sg12
F0.0
sg13
F0.0
sg14
F0.0
sg15
F0.0
sg16
F125034.0
sg17
F0.0
sg18
F0.0
sg19
F0.0
sg20
F0.0
sg21
F0.0
sg22
F0.0
sg23
F3750.0
sg24
F0.0
sg25
F0.0
ssS'IZZO LAWRENCE L'
p290
(dp291
g3
F496.0
sg4
F0.0
sg5
F28093.0
sg6
I00
sg7
F312500.0
sg8
F437.0
sg9
F28.0
sg10
F0.0
sg11
F0.0
sg12
F0.0
sg13
F0.0
sg14
F19.0
sg15
F1553729.0
sg16
F0.0
sg17
F1.4736842105263157
sg18
F0.0
sg19
F5819980.0
sg20
F5.0
sg21
F3654808.0
sg22
F85274.0
sg23
F1979596.0
sg24
F0.010080645161290322
sg25
F2165172.0
ssS'TILNEY ELIZABETH A'
p292
(dp293
g3
F460.0
sg4
F0.0
sg5
F0.0
sg6
I00
sg7
F275000.0
sg8
F379.0
sg9
F10.0
sg10
F-575000.0
sg11
F0.0
sg12
F1.2129151201998885
sg13
F0.0
sg14
F19.0
sg15
F152055.0
sg16
F0.0
sg17
F0.5263157894736842
sg18
F300000.0
sg19
F1168042.0
sg20
F11.0
sg21
F576792.0
sg22
F247338.0
sg23
F399393.0
sg24
F0.02391304347826087
sg25
F591250.0
ssS'BUY RICHARD B'
p294
(dp295
g3
F3523.0
sg4
F649584.0
sg5
F0.0
sg6
I00
sg7
F769862.0
sg8
F2333.0
sg9
F156.0
sg10
F-694862.0
sg11
F0.0
sg12
F2.722767784211577
sg13
F0.0
sg14
F1053.0
sg15
F400572.0
sg16
F0.0
sg17
F0.14814814814814814
sg18
F900000.0
sg19
F3444470.0
sg20
F71.0
sg21
F901657.0
sg22
F330546.0
sg23
F2355702.0
sg24
F0.02015327845586148
sg25
F2542813.0
ssS'GRAMM WENDY L'
p296
(dp297
g3
F0.0
sg4
F0.0
sg5
F0.0
sg6
I00
sg7
F0.0
sg8
F0.0
sg9
F0.0
sg10
F0.0
sg11
F0.0
sg12
F0.0
sg13
F0.0
sg14
F0.0
sg15
F0.0
sg16
F119292.0
sg17
F0.0
sg18
F0.0
sg19
F0.0
sg20
F0.0
sg21
F0.0
sg22
F0.0
sg23
F119292.0
sg24
F0.0
sg25
F0.0
ssS'CAUSEY RICHARD A'
p298
(dp299
g3
F1892.0
sg4
F0.0
sg5
F30674.0
sg6
I01
sg7
F350000.0
sg8
F1585.0
sg9
F58.0
sg10
F-235000.0
sg11
F0.0
sg12
F2.4085416521150607
sg13
F0.0
sg14
F49.0
sg15
F307895.0
sg16
F0.0
sg17
F1.183673469387755
sg18
F1000000.0
sg19
F2502063.0
sg20
F12.0
sg21
F2502063.0
sg22
F415189.0
sg23
F1868758.0
sg24
F0.006342494714587738
sg25
F0.0
ssS'TAYLOR MITCHELL S'
p300
(dp301
g3
F533.0
sg4
F227449.0
sg5
F0.0
sg6
I00
sg7
F0.0
sg8
F300.0
sg9
F0.0
sg10
F0.0
sg11
F0.0
sg12
F2.2623240100447184
sg13
F0.0
sg14
F29.0
sg15
F0.0
sg16
F0.0
sg17
F0.0
sg18
F600000.0
sg19
F3745048.0
sg20
F0.0
sg21
F563798.0
sg22
F265214.0
sg23
F1092663.0
sg24
F0.0
sg25
F3181250.0
ssS'DONAHUE JR JEFFREY M'
p302
(dp303
g3
F865.0
sg4
F0.0
sg5
F96268.0
sg6
I00
sg7
F0.0
sg8
F772.0
sg9
F188.0
sg10
F-300000.0
sg11
F0.0
sg12
F2.8714900520816506
sg13
F0.0
sg14
F22.0
sg15
F891.0
sg16
F0.0
sg17
F8.545454545454545
sg18
F800000.0
sg19
F1080988.0
sg20
F11.0
sg21
F315068.0
sg22
F278601.0
sg23
F875760.0
sg24
F0.012716763005780347
sg25
F765920.0
ssS'GLISAN JR BEN F'
p304
(dp305
g3
F873.0
sg4
F0.0
sg5
F125978.0
sg6
I01
sg7
F71023.0
sg8
F874.0
sg9
F52.0
sg10
F0.0
sg11
F0.0
sg12
F2.1820165469588146
sg13
F0.0
sg14
F16.0
sg15
F200308.0
sg16
F0.0
sg17
F3.25
sg18
F600000.0
sg19
F778546.0
sg20
F6.0
sg21
F393818.0
sg22
F274975.0
sg23
F1272284.0
sg24
F0.006872852233676976
sg25
F384728.0
ss.