(lp0
S'poi'
p1
aS'salary'
p2
aS'bonus'
p3
aS'long_term_incentive'
p4
aS'bonus-to-salary_ratio'
p5
aS'expenses'
p6
aS'restricted_stock'
p7
aS'deferred_income'
p8
aS'fraction_mail_from_poi'
p9
aS'total_payments'
p10
aS'other'
p11
aS'fraction_mail_to_poi'
p12
aS'from_poi_to_this_person'
p13
a.