(lp0
S'poi'
p1
aS'salary'
p2
aS'bonus'
p3
aS'long_term_incentive'
p4
aS'bonus-to-salary_ratio'
p5
aS'deferral_payments'
p6
aS'expenses'
p7
aS'restricted_stock_deferred'
p8
aS'restricted_stock'
p9
aS'deferred_income'
p10
aS'fraction_mail_from_poi'
p11
aS'total_payments'
p12
aS'other'
p13
aS'fraction_mail_to_poi'
p14
aS'from_poi_to_this_person'
p15
aS'from_this_person_to_poi'
p16
aS'to_messages'
p17
aS'from_messages'
p18
aS'shared_receipt_with_poi'
p19
aS'loan_advances'
p20
aS'director_fees'
p21
aS'exercised_stock_options'
p22
aS'total_stock_value'
p23
ag9
a.